target datalayout = "e-m:e-p270:32:32-p271:32:32-p272:64:64-i64:64-i128:128-f80:128-n8:16:32:64-S128"
target triple = "x86_64-unknown-linux-gnu"

%struct.QTailQLink = type { ptr, ptr }
%struct.MemoryRegion = type { %struct.Object, i8, i8, i8, i8, i8, i8, i8, i8, i8, i8, ptr, ptr, ptr, ptr, ptr, ptr, i32, i128, i64, ptr, i64, i8, i8, i8, i8, i8, ptr, i64, i32, %union.anon.2, %union.anon.3, %union.anon.4, ptr, i32, ptr, ptr, i8 }
%struct.Object = type { ptr, ptr, ptr, i32, ptr }
%union.anon.2 = type { %struct.QTailQLink }
%union.anon.3 = type { %struct.QTailQLink }
%union.anon.4 = type { %struct.QTailQLink }
%struct.MemoryRegionPortioList = type { %struct.Object, %struct.MemoryRegion, ptr, ptr }

@.str.1 = private unnamed_addr constant [24 x i8] c"../qemu/system/ioport.c\00", align 1
@.str.9 = private unnamed_addr constant [26 x i8] c"memory-region-portio-list\00", align 1
@__func__.MEMORY_REGION_PORTIO_LIST = private unnamed_addr constant [26 x i8] c"MEMORY_REGION_PORTIO_LIST\00", align 1

; Function Attrs: nounwind sspstrong uwtable
define internal ptr @MEMORY_REGION_PORTIO_LIST(ptr noundef %obj) #0 {
entry:
  %obj.addr = alloca ptr, align 8
  store ptr %obj, ptr %obj.addr, align 8
  %0 = load ptr, ptr %obj.addr, align 8
  %call = call ptr @object_dynamic_cast_assert(ptr noundef %0, ptr noundef @.str.9, ptr noundef @.str.1, i32 noundef 44, ptr noundef @__func__.MEMORY_REGION_PORTIO_LIST)
  ret ptr %call
}

; Function Attrs: nounwind sspstrong uwtable
define internal void @memory_region_portio_list_finalize(ptr noundef %obj) #0 {
entry:
  %obj.addr = alloca ptr, align 8
  %mrpio = alloca ptr, align 8
  store ptr %obj, ptr %obj.addr, align 8
  %0 = load ptr, ptr %obj.addr, align 8
  %call = call ptr @MEMORY_REGION_PORTIO_LIST(ptr noundef %0)
  store ptr %call, ptr %mrpio, align 8
  %1 = load ptr, ptr %mrpio, align 8
  %mr = getelementptr inbounds %struct.MemoryRegionPortioList, ptr %1, i32 0, i32 1
  call void @object_unref(ptr noundef %mr)
  %2 = load ptr, ptr %mrpio, align 8
  %ports = getelementptr inbounds %struct.MemoryRegionPortioList, ptr %2, i32 0, i32 3
  %3 = load ptr, ptr %ports, align 8
  call void @g_free(ptr noundef %3)
  ret void
}