; Function Attrs: nounwind sspstrong uwtable
define internal void @memory_region_portio_list_finalize(ptr noundef %obj) #1 {
entry:
  %call.i = tail call ptr @object_dynamic_cast_assert(ptr noundef %obj, ptr noundef nonnull @.str.9, ptr noundef nonnull @.str.1, i32 noundef 44, ptr noundef nonnull @__func__.MEMORY_REGION_PORTIO_LIST) #11
  %mr = getelementptr inbounds nuw i8, ptr %call.i, i64 48
  tail call void @object_unref(ptr noundef nonnull %mr) #11
  %ports = getelementptr inbounds nuw i8, ptr %call.i, i64 328
  %0 = load ptr, ptr %ports, align 8
  tail call void @g_free(ptr noundef %0) #11
  ret void
}